target datalayout = "e-m:e-p270:32:32-p271:32:32-p272:64:64-i64:64-i128:128-f80:128-n8:16:32:64-S128"
target triple = "x86_64-pc-linux-gnu"

%struct.H5FL_fac_gc_list_t = type { i64, ptr }
%struct.H5FL_fac_head_t = type { i8, i32, i32, i64, ptr, ptr }
%struct.H5FL_fac_node_t = type { ptr }

@H5FL_init_g = global i8 0, align 1
@H5_libterm_g = external global i8, align 1
@.str.2 = private unnamed_addr constant [98 x i8] c"generated/home/dtcxzyw/WorkSpace/Projects/compilers/llvm-opt-benchmark/bench/hdf5/hdf5/src/H5FL.c\00", align 1
@H5E_RESOURCE_g = external global i64, align 8
@H5E_CANTGC_g = external global i64, align 8
@H5E_NOSPACE_g = external global i64, align 8
@.str.5 = private unnamed_addr constant [25 x i8] c"memory allocation failed\00", align 1
@.str.7 = private unnamed_addr constant [35 x i8] c"memory allocation failed for chunk\00", align 1
@H5FL_fac_gc_head = internal global %struct.H5FL_fac_gc_list_t zeroinitializer, align 8
@__func__.H5FL_fac_malloc = private unnamed_addr constant [16 x i8] c"H5FL_fac_malloc\00", align 1
@__func__.H5FL__malloc = private unnamed_addr constant [13 x i8] c"H5FL__malloc\00", align 1
@.str.18 = private unnamed_addr constant [44 x i8] c"garbage collection failed during allocation\00", align 1

; Function Attrs: nounwind uwtable
define internal ptr @H5FL__malloc(i64 noundef %0) #0 {
  %2 = alloca i64, align 8
  %3 = alloca ptr, align 8
  %4 = alloca i8, align 1
  store i64 %0, ptr %2, align 8, !tbaa !11
  call void @llvm.lifetime.start.p0(i64 8, ptr %3) #9
  store ptr null, ptr %3, align 8, !tbaa !69
  call void @llvm.lifetime.start.p0(i64 1, ptr %4) #9
  store i8 0, ptr %4, align 1, !tbaa !7
  %5 = load i8, ptr @H5FL_init_g, align 1, !tbaa !7, !range !9, !noundef !10
  %6 = trunc i8 %5 to i1
  br i1 %6, label %11, label %7

7:                                                ; preds = %1
  %8 = load i8, ptr @H5_libterm_g, align 1, !tbaa !7, !range !9, !noundef !10
  %9 = trunc i8 %8 to i1
  %10 = xor i1 %9, true
  br label %11

11:                                               ; preds = %7, %1
  %12 = phi i1 [ true, %1 ], [ %10, %7 ]
  %13 = xor i1 %12, true
  %14 = xor i1 %13, true
  %15 = zext i1 %14 to i32
  %16 = sext i32 %15 to i64
  %17 = call i64 @llvm.expect.i64(i64 %16, i64 1)
  %18 = icmp ne i64 %17, 0
  br i1 %18, label %19, label %71

19:                                               ; preds = %11
  %20 = load i64, ptr %2, align 8, !tbaa !11
  %21 = call noalias ptr @malloc(i64 noundef %20) #10
  store ptr %21, ptr %3, align 8, !tbaa !69
  %22 = icmp eq ptr null, %21
  br i1 %22, label %23, label %69

23:                                               ; preds = %19
  %24 = call i32 @H5FL_garbage_coll()
  %25 = icmp slt i32 %24, 0
  br i1 %25, label %26, label %45

26:                                               ; preds = %23
  br label %27

27:                                               ; preds = %26
  br label %28

28:                                               ; preds = %27
  br label %29

29:                                               ; preds = %28
  %30 = load i64, ptr @H5E_RESOURCE_g, align 8, !tbaa !11
  %31 = load i64, ptr @H5E_CANTGC_g, align 8, !tbaa !11
  %32 = call i32 (ptr, ptr, i32, i64, i64, ptr, ...) @H5E_printf_stack(ptr noundef @.str.2, ptr noundef @__func__.H5FL__malloc, i32 noundef 214, i64 noundef %30, i64 noundef %31, ptr noundef @.str.18)
  br label %33

33:                                               ; preds = %29
  br label %34

34:                                               ; preds = %33
  store i8 1, ptr %4, align 1, !tbaa !7
  %35 = load i8, ptr %4, align 1, !tbaa !7, !range !9, !noundef !10
  %36 = trunc i8 %35 to i1
  %37 = zext i1 %36 to i8
  store i8 %37, ptr %4, align 1, !tbaa !7
  br label %38

38:                                               ; preds = %34
  br label %39

39:                                               ; preds = %38
  br label %40

40:                                               ; preds = %39
  store ptr null, ptr %3, align 8, !tbaa !69
  br label %70

41:                                               ; No predecessors!
  br label %42

42:                                               ; preds = %41
  br label %43

43:                                               ; preds = %42
  br label %44

44:                                               ; preds = %43
  br label %45

45:                                               ; preds = %44, %23
  %46 = load i64, ptr %2, align 8, !tbaa !11
  %47 = call noalias ptr @malloc(i64 noundef %46) #10
  store ptr %47, ptr %3, align 8, !tbaa !69
  %48 = icmp eq ptr null, %47
  br i1 %48, label %49, label %68

49:                                               ; preds = %45
  br label %50

50:                                               ; preds = %49
  br label %51

51:                                               ; preds = %50
  br label %52

52:                                               ; preds = %51
  %53 = load i64, ptr @H5E_RESOURCE_g, align 8, !tbaa !11
  %54 = load i64, ptr @H5E_NOSPACE_g, align 8, !tbaa !11
  %55 = call i32 (ptr, ptr, i32, i64, i64, ptr, ...) @H5E_printf_stack(ptr noundef @.str.2, ptr noundef @__func__.H5FL__malloc, i32 noundef 218, i64 noundef %53, i64 noundef %54, ptr noundef @.str.7)
  br label %56

56:                                               ; preds = %52
  br label %57

57:                                               ; preds = %56
  store i8 1, ptr %4, align 1, !tbaa !7
  %58 = load i8, ptr %4, align 1, !tbaa !7, !range !9, !noundef !10
  %59 = trunc i8 %58 to i1
  %60 = zext i1 %59 to i8
  store i8 %60, ptr %4, align 1, !tbaa !7
  br label %61

61:                                               ; preds = %57
  br label %62

62:                                               ; preds = %61
  br label %63

63:                                               ; preds = %62
  store ptr null, ptr %3, align 8, !tbaa !69
  br label %70

64:                                               ; No predecessors!
  br label %65

65:                                               ; preds = %64
  br label %66

66:                                               ; preds = %65
  br label %67

67:                                               ; preds = %66
  br label %68

68:                                               ; preds = %67, %45
  br label %69

69:                                               ; preds = %68, %19
  br label %70

70:                                               ; preds = %69, %63, %40
  br label %71

71:                                               ; preds = %70, %11
  %72 = load ptr, ptr %3, align 8, !tbaa !69
  call void @llvm.lifetime.end.p0(i64 1, ptr %4) #9
  call void @llvm.lifetime.end.p0(i64 8, ptr %3) #9
  ret ptr %72
}

; Function Attrs: nounwind uwtable
define noalias ptr @H5FL_fac_malloc(ptr noundef %0) #0 {
  %2 = alloca ptr, align 8
  %3 = alloca ptr, align 8
  %4 = alloca i8, align 1
  store ptr %0, ptr %2, align 8, !tbaa !122
  call void @llvm.lifetime.start.p0(i64 8, ptr %3) #9
  store ptr null, ptr %3, align 8, !tbaa !69
  call void @llvm.lifetime.start.p0(i64 1, ptr %4) #9
  store i8 0, ptr %4, align 1, !tbaa !7
  %5 = load i8, ptr @H5FL_init_g, align 1, !tbaa !7, !range !9, !noundef !10
  %6 = trunc i8 %5 to i1
  br i1 %6, label %11, label %7

7:                                                ; preds = %1
  %8 = load i8, ptr @H5_libterm_g, align 1, !tbaa !7, !range !9, !noundef !10
  %9 = trunc i8 %8 to i1
  %10 = xor i1 %9, true
  br label %11

11:                                               ; preds = %7, %1
  %12 = phi i1 [ true, %1 ], [ %10, %7 ]
  %13 = xor i1 %12, true
  %14 = xor i1 %13, true
  %15 = zext i1 %14 to i32
  %16 = sext i32 %15 to i64
  %17 = call i64 @llvm.expect.i64(i64 %16, i64 1)
  %18 = icmp ne i64 %17, 0
  br i1 %18, label %19, label %76

19:                                               ; preds = %11
  %20 = load ptr, ptr %2, align 8, !tbaa !122
  %21 = getelementptr inbounds nuw %struct.H5FL_fac_head_t, ptr %20, i32 0, i32 4
  %22 = load ptr, ptr %21, align 8, !tbaa !125
  %23 = icmp ne ptr %22, null
  br i1 %23, label %24, label %44

24:                                               ; preds = %19
  %25 = load ptr, ptr %2, align 8, !tbaa !122
  %26 = getelementptr inbounds nuw %struct.H5FL_fac_head_t, ptr %25, i32 0, i32 4
  %27 = load ptr, ptr %26, align 8, !tbaa !125
  store ptr %27, ptr %3, align 8, !tbaa !69
  %28 = load ptr, ptr %2, align 8, !tbaa !122
  %29 = getelementptr inbounds nuw %struct.H5FL_fac_head_t, ptr %28, i32 0, i32 4
  %30 = load ptr, ptr %29, align 8, !tbaa !125
  %31 = getelementptr inbounds nuw %struct.H5FL_fac_node_t, ptr %30, i32 0, i32 0
  %32 = load ptr, ptr %31, align 8, !tbaa !126
  %33 = load ptr, ptr %2, align 8, !tbaa !122
  %34 = getelementptr inbounds nuw %struct.H5FL_fac_head_t, ptr %33, i32 0, i32 4
  store ptr %32, ptr %34, align 8, !tbaa !125
  %35 = load ptr, ptr %2, align 8, !tbaa !122
  %36 = getelementptr inbounds nuw %struct.H5FL_fac_head_t, ptr %35, i32 0, i32 2
  %37 = load i32, ptr %36, align 8, !tbaa !128
  %38 = add i32 %37, -1
  store i32 %38, ptr %36, align 8, !tbaa !128
  %39 = load ptr, ptr %2, align 8, !tbaa !122
  %40 = getelementptr inbounds nuw %struct.H5FL_fac_head_t, ptr %39, i32 0, i32 3
  %41 = load i64, ptr %40, align 8, !tbaa !123
  %42 = load i64, ptr @H5FL_fac_gc_head, align 8, !tbaa !129
  %43 = sub i64 %42, %41
  store i64 %43, ptr @H5FL_fac_gc_head, align 8, !tbaa !129
  br label %74

44:                                               ; preds = %19
  %45 = load ptr, ptr %2, align 8, !tbaa !122
  %46 = getelementptr inbounds nuw %struct.H5FL_fac_head_t, ptr %45, i32 0, i32 3
  %47 = load i64, ptr %46, align 8, !tbaa !123
  %48 = call ptr @H5FL__malloc(i64 noundef %47)
  store ptr %48, ptr %3, align 8, !tbaa !69
  %49 = icmp eq ptr null, %48
  br i1 %49, label %50, label %69

50:                                               ; preds = %44
  br label %51

51:                                               ; preds = %50
  br label %52

52:                                               ; preds = %51
  br label %53

53:                                               ; preds = %52
  %54 = load i64, ptr @H5E_RESOURCE_g, align 8, !tbaa !11
  %55 = load i64, ptr @H5E_NOSPACE_g, align 8, !tbaa !11
  %56 = call i32 (ptr, ptr, i32, i64, i64, ptr, ...) @H5E_printf_stack(ptr noundef @.str.2, ptr noundef @__func__.H5FL_fac_malloc, i32 noundef 1841, i64 noundef %54, i64 noundef %55, ptr noundef @.str.5)
  br label %57

57:                                               ; preds = %53
  br label %58

58:                                               ; preds = %57
  store i8 1, ptr %4, align 1, !tbaa !7
  %59 = load i8, ptr %4, align 1, !tbaa !7, !range !9, !noundef !10
  %60 = trunc i8 %59 to i1
  %61 = zext i1 %60 to i8
  store i8 %61, ptr %4, align 1, !tbaa !7
  br label %62

62:                                               ; preds = %58
  br label %63

63:                                               ; preds = %62
  br label %64

64:                                               ; preds = %63
  store ptr null, ptr %3, align 8, !tbaa !69
  br label %75

65:                                               ; No predecessors!
  br label %66

66:                                               ; preds = %65
  br label %67

67:                                               ; preds = %66
  br label %68

68:                                               ; preds = %67
  br label %69

69:                                               ; preds = %68, %44
  %70 = load ptr, ptr %2, align 8, !tbaa !122
  %71 = getelementptr inbounds nuw %struct.H5FL_fac_head_t, ptr %70, i32 0, i32 1
  %72 = load i32, ptr %71, align 4, !tbaa !132
  %73 = add i32 %72, 1
  store i32 %73, ptr %71, align 4, !tbaa !132
  br label %74

74:                                               ; preds = %69, %24
  br label %75

75:                                               ; preds = %74, %64
  br label %76

76:                                               ; preds = %75, %11
  %77 = load ptr, ptr %3, align 8, !tbaa !69
  call void @llvm.lifetime.end.p0(i64 1, ptr %4) #9
  call void @llvm.lifetime.end.p0(i64 8, ptr %3) #9
  ret ptr %77
}