; Function Attrs: nounwind uwtable
define noalias ptr @H5FL_fac_malloc(ptr noundef captures(none) %0) local_unnamed_addr #0 {
  %2 = load i8, ptr @H5FL_init_g, align 1, !tbaa !3, !range !7, !noundef !8
  %3 = trunc nuw i8 %2 to i1
  %4 = load i8, ptr @H5_libterm_g, align 1, !range !7
  %5 = trunc nuw i8 %4 to i1
  %6 = xor i1 %5, true
  %7 = select i1 %3, i1 true, i1 %6
  br i1 %7, label %8, label %40, !prof !15

8:                                                ; preds = %1
  %9 = getelementptr inbounds nuw i8, ptr %0, i64 24
  %10 = load ptr, ptr %9, align 8, !tbaa !76
  %.not = icmp eq ptr %10, null
  br i1 %.not, label %20, label %11

11:                                               ; preds = %8
  %12 = load ptr, ptr %10, align 8, !tbaa !77
  store ptr %12, ptr %9, align 8, !tbaa !76
  %13 = getelementptr inbounds nuw i8, ptr %0, i64 8
  %14 = load i32, ptr %13, align 8, !tbaa !80
  %15 = add i32 %14, -1
  store i32 %15, ptr %13, align 8, !tbaa !80
  %16 = getelementptr inbounds nuw i8, ptr %0, i64 16
  %17 = load i64, ptr %16, align 8, !tbaa !82
  %18 = load i64, ptr @H5FL_fac_gc_head.0, align 8, !tbaa !83
  %19 = sub i64 %18, %17
  store i64 %19, ptr @H5FL_fac_gc_head.0, align 8, !tbaa !83
  br label %40

20:                                               ; preds = %8
  %21 = getelementptr inbounds nuw i8, ptr %0, i64 16
  %22 = load i64, ptr %21, align 8, !tbaa !82
  %23 = tail call noalias ptr @malloc(i64 noundef %22) #11
  %24 = icmp eq ptr %23, null
  br i1 %24, label %25, label %36

25:                                               ; preds = %20
  %26 = tail call i32 @H5FL_garbage_coll()
  %27 = tail call noalias ptr @malloc(i64 noundef %22) #11
  %28 = icmp eq ptr %27, null
  br i1 %28, label %29, label %36

29:                                               ; preds = %25
  %30 = load i64, ptr @H5E_RESOURCE_g, align 8, !tbaa !86
  %31 = load i64, ptr @H5E_NOSPACE_g, align 8, !tbaa !86
  %32 = tail call i32 (ptr, ptr, i32, i64, i64, ptr, ...) @H5E_printf_stack(ptr noundef nonnull @.str.2, ptr noundef nonnull @__func__.H5FL__malloc, i32 noundef 218, i64 noundef %30, i64 noundef %31, ptr noundef nonnull @.str.7) #10
  %33 = load i64, ptr @H5E_RESOURCE_g, align 8, !tbaa !86
  %34 = load i64, ptr @H5E_NOSPACE_g, align 8, !tbaa !86
  %35 = tail call i32 (ptr, ptr, i32, i64, i64, ptr, ...) @H5E_printf_stack(ptr noundef nonnull @.str.2, ptr noundef nonnull @__func__.H5FL_fac_malloc, i32 noundef 1841, i64 noundef %33, i64 noundef %34, ptr noundef nonnull @.str.5) #10
  br label %40

36:                                               ; preds = %25, %20
  %.0.i.ph = phi ptr [ %23, %20 ], [ %27, %25 ]
  %37 = getelementptr inbounds nuw i8, ptr %0, i64 4
  %38 = load i32, ptr %37, align 4, !tbaa !81
  %39 = add i32 %38, 1
  store i32 %39, ptr %37, align 4, !tbaa !81
  br label %40

40:                                               ; preds = %29, %36, %11, %1
  %.0 = phi ptr [ %10, %11 ], [ null, %29 ], [ %.0.i.ph, %36 ], [ null, %1 ]
  ret ptr %.0
}